target datalayout = "e-m:e-p270:32:32-p271:32:32-p272:64:64-i64:64-i128:128-f80:128-n8:16:32:64-S128"
target triple = "x86_64-pc-linux-gnu"

%struct.gz_state = type { i32, i32, ptr, i64, i32, i32, ptr, ptr, ptr, i32, i32, i64, i64, i32, i32, i32, i32, i64, i32, i32, ptr, %struct.z_stream_s }
%struct.z_stream_s = type { ptr, i32, i64, ptr, i32, i64, ptr, ptr, ptr, ptr, ptr, i32, i64, i64 }

; Function Attrs: nounwind uwtable
define internal i32 @gz_load(ptr noundef %0, ptr noundef %1, i32 noundef %2, ptr noundef %3) #0 {
  %5 = alloca i32, align 4
  %6 = alloca ptr, align 8
  %7 = alloca ptr, align 8
  %8 = alloca i32, align 4
  %9 = alloca ptr, align 8
  %10 = alloca i32, align 4
  %11 = alloca i32, align 4
  store ptr %0, ptr %6, align 8, !tbaa !3
  store ptr %1, ptr %7, align 8, !tbaa !35
  store i32 %2, ptr %8, align 4, !tbaa !7
  store ptr %3, ptr %9, align 8, !tbaa !36
  call void @llvm.lifetime.start.p0(i64 4, ptr %10) #8
  %12 = load ptr, ptr %9, align 8, !tbaa !36
  store i32 0, ptr %12, align 4, !tbaa !7
  br label %13

13:                                               ; preds = %37, %4
  %14 = load ptr, ptr %6, align 8, !tbaa !3
  %15 = getelementptr inbounds nuw %struct.gz_state, ptr %14, i32 0, i32 1
  %16 = load i32, ptr %15, align 4, !tbaa !38
  %17 = load ptr, ptr %7, align 8, !tbaa !35
  %18 = load ptr, ptr %9, align 8, !tbaa !36
  %19 = load i32, ptr %18, align 4, !tbaa !7
  %20 = zext i32 %19 to i64
  %21 = getelementptr inbounds nuw i8, ptr %17, i64 %20
  %22 = load i32, ptr %8, align 4, !tbaa !7
  %23 = load ptr, ptr %9, align 8, !tbaa !36
  %24 = load i32, ptr %23, align 4, !tbaa !7
  %25 = sub i32 %22, %24
  %26 = zext i32 %25 to i64
  %27 = call i64 @read(i32 noundef %16, ptr noundef %21, i64 noundef %26)
  %28 = trunc i64 %27 to i32
  store i32 %28, ptr %10, align 4, !tbaa !7
  %29 = load i32, ptr %10, align 4, !tbaa !7
  %30 = icmp sle i32 %29, 0
  br i1 %30, label %31, label %32

31:                                               ; preds = %13
  br label %42

32:                                               ; preds = %13
  %33 = load i32, ptr %10, align 4, !tbaa !7
  %34 = load ptr, ptr %9, align 8, !tbaa !36
  %35 = load i32, ptr %34, align 4, !tbaa !7
  %36 = add i32 %35, %33
  store i32 %36, ptr %34, align 4, !tbaa !7
  br label %37

37:                                               ; preds = %32
  %38 = load ptr, ptr %9, align 8, !tbaa !36
  %39 = load i32, ptr %38, align 4, !tbaa !7
  %40 = load i32, ptr %8, align 4, !tbaa !7
  %41 = icmp ult i32 %39, %40
  br i1 %41, label %13, label %42, !llvm.loop !39

42:                                               ; preds = %37, %31
  %43 = load i32, ptr %10, align 4, !tbaa !7
  %44 = icmp slt i32 %43, 0
  br i1 %44, label %45, label %50

45:                                               ; preds = %42
  %46 = load ptr, ptr %6, align 8, !tbaa !3
  %47 = call ptr @__errno_location() #9
  %48 = load i32, ptr %47, align 4, !tbaa !7
  %49 = call ptr @strerror(i32 noundef %48) #8
  call void @gz_error(ptr noundef %46, i32 noundef -1, ptr noundef %49)
  store i32 -1, ptr %5, align 4
  store i32 1, ptr %11, align 4
  br label %57

50:                                               ; preds = %42
  %51 = load i32, ptr %10, align 4, !tbaa !7
  %52 = icmp eq i32 %51, 0
  br i1 %52, label %53, label %56

53:                                               ; preds = %50
  %54 = load ptr, ptr %6, align 8, !tbaa !3
  %55 = getelementptr inbounds nuw %struct.gz_state, ptr %54, i32 0, i32 10
  store i32 1, ptr %55, align 4, !tbaa !22
  br label %56

56:                                               ; preds = %53, %50
  store i32 0, ptr %5, align 4
  store i32 1, ptr %11, align 4
  br label %57

57:                                               ; preds = %56, %45
  call void @llvm.lifetime.end.p0(i64 4, ptr %10) #8
  %58 = load i32, ptr %5, align 4
  ret i32 %58
}

; Function Attrs: nounwind uwtable
define internal i32 @gz_avail(ptr noundef %0) #0 {
  %2 = alloca i32, align 4
  %3 = alloca ptr, align 8
  %4 = alloca ptr, align 8
  %5 = alloca i32, align 4
  store ptr %0, ptr %3, align 8, !tbaa !3
  call void @llvm.lifetime.start.p0(i64 8, ptr %4) #8
  %6 = load ptr, ptr %3, align 8, !tbaa !3
  %7 = getelementptr inbounds nuw %struct.gz_state, ptr %6, i32 0, i32 21
  store ptr %7, ptr %4, align 8, !tbaa !9
  %8 = load ptr, ptr %3, align 8, !tbaa !3
  %9 = getelementptr inbounds nuw %struct.gz_state, ptr %8, i32 0, i32 19
  %10 = load i32, ptr %9, align 4, !tbaa !17
  %11 = icmp ne i32 %10, 0
  br i1 %11, label %12, label %13

12:                                               ; preds = %1
  store i32 -1, ptr %2, align 4
  store i32 1, ptr %5, align 4
  br label %38

13:                                               ; preds = %1
  %14 = load ptr, ptr %3, align 8, !tbaa !3
  %15 = getelementptr inbounds nuw %struct.gz_state, ptr %14, i32 0, i32 10
  %16 = load i32, ptr %15, align 4, !tbaa !22
  %17 = icmp eq i32 %16, 0
  br i1 %17, label %18, label %37

18:                                               ; preds = %13
  %19 = load ptr, ptr %3, align 8, !tbaa !3
  %20 = load ptr, ptr %3, align 8, !tbaa !3
  %21 = getelementptr inbounds nuw %struct.gz_state, ptr %20, i32 0, i32 6
  %22 = load ptr, ptr %21, align 8, !tbaa !49
  %23 = load ptr, ptr %3, align 8, !tbaa !3
  %24 = getelementptr inbounds nuw %struct.gz_state, ptr %23, i32 0, i32 4
  %25 = load i32, ptr %24, align 8, !tbaa !25
  %26 = load ptr, ptr %4, align 8, !tbaa !9
  %27 = getelementptr inbounds nuw %struct.z_stream_s, ptr %26, i32 0, i32 1
  %28 = call i32 @gz_load(ptr noundef %19, ptr noundef %22, i32 noundef %25, ptr noundef %27)
  %29 = icmp eq i32 %28, -1
  br i1 %29, label %30, label %31

30:                                               ; preds = %18
  store i32 -1, ptr %2, align 4
  store i32 1, ptr %5, align 4
  br label %38

31:                                               ; preds = %18
  %32 = load ptr, ptr %3, align 8, !tbaa !3
  %33 = getelementptr inbounds nuw %struct.gz_state, ptr %32, i32 0, i32 6
  %34 = load ptr, ptr %33, align 8, !tbaa !49
  %35 = load ptr, ptr %4, align 8, !tbaa !9
  %36 = getelementptr inbounds nuw %struct.z_stream_s, ptr %35, i32 0, i32 0
  store ptr %34, ptr %36, align 8, !tbaa !54
  br label %37

37:                                               ; preds = %31, %13
  store i32 0, ptr %2, align 4
  store i32 1, ptr %5, align 4
  br label %38

38:                                               ; preds = %37, %30, %12
  call void @llvm.lifetime.end.p0(i64 8, ptr %4) #8
  %39 = load i32, ptr %2, align 4
  ret i32 %39
}