; Function Attrs: nounwind uwtable
define internal fastcc range(i32 -1, 1) i32 @gz_avail(ptr noundef nonnull %0) unnamed_addr #0 {
  %2 = getelementptr inbounds nuw i8, ptr %0, i64 120
  %3 = getelementptr inbounds nuw i8, ptr %0, i64 108
  %4 = load i32, ptr %3, align 4, !tbaa !13
  %.not = icmp eq i32 %4, 0
  br i1 %.not, label %5, label %37

5:                                                ; preds = %1
  %6 = getelementptr inbounds nuw i8, ptr %0, i64 60
  %7 = load i32, ptr %6, align 4, !tbaa !19
  %8 = icmp eq i32 %7, 0
  br i1 %8, label %9, label %37

9:                                                ; preds = %5
  %10 = getelementptr inbounds nuw i8, ptr %0, i64 32
  %11 = load ptr, ptr %10, align 8, !tbaa !33
  %12 = getelementptr inbounds nuw i8, ptr %0, i64 24
  %13 = load i32, ptr %12, align 8, !tbaa !25
  %14 = getelementptr inbounds nuw i8, ptr %0, i64 128
  store i32 0, ptr %14, align 4, !tbaa !28
  %15 = getelementptr inbounds nuw i8, ptr %0, i64 4
  br label %16

16:                                               ; preds = %26, %9
  %17 = phi i32 [ %28, %26 ], [ 0, %9 ]
  %18 = load i32, ptr %15, align 4, !tbaa !26
  %19 = zext i32 %17 to i64
  %20 = getelementptr inbounds nuw i8, ptr %11, i64 %19
  %21 = sub i32 %13, %17
  %22 = zext i32 %21 to i64
  %23 = tail call i64 @read(i32 noundef %18, ptr noundef %20, i64 noundef %22) #12
  %24 = trunc i64 %23 to i32
  %25 = icmp slt i32 %24, 1
  br i1 %25, label %30, label %26

26:                                               ; preds = %16
  %27 = load i32, ptr %14, align 4, !tbaa !28
  %28 = add i32 %27, %24
  store i32 %28, ptr %14, align 4, !tbaa !28
  %29 = icmp ult i32 %28, %13
  br i1 %29, label %16, label %.loopexit, !llvm.loop !27

30:                                               ; preds = %16
  %31 = icmp slt i32 %24, 0
  br i1 %31, label %gz_load.exit, label %32

32:                                               ; preds = %30
  store i32 1, ptr %6, align 4, !tbaa !19
  br label %.loopexit

gz_load.exit:                                     ; preds = %30
  %33 = tail call ptr @__errno_location() #13
  %34 = load i32, ptr %33, align 4, !tbaa !28
  %35 = tail call ptr @strerror(i32 noundef %34) #12
  tail call void @gz_error(ptr noundef nonnull %0, i32 noundef -1, ptr noundef %35) #12
  br label %37

.loopexit:                                        ; preds = %26, %32
  %36 = load ptr, ptr %10, align 8, !tbaa !33
  store ptr %36, ptr %2, align 8, !tbaa !34
  br label %37

37:                                               ; preds = %gz_load.exit, %5, %.loopexit, %1
  %.0 = phi i32 [ -1, %1 ], [ -1, %gz_load.exit ], [ 0, %.loopexit ], [ 0, %5 ]
  ret i32 %.0
}